Certificate:
    Data:
        Version: 3 (0x2)
        Serial Number:
            0d:e3:9b:ff:e3:ee:7b:a2:a3:05:1e:0c:c3:11:06:ae:8f:74:75:22
        Signature Algorithm: sha512WithRSAEncryption
        Issuer: C=RU, ST=Moscow, O=Private Person, CN=Test Certificate Authority
        Validity
            Not Before: Nov 10 11:01:44 2024 GMT
            Not After : Nov  5 11:01:44 2044 GMT
        Subject: C=RU, ST=Moscow, O=Private Person, CN=Test Certificate Authority
        Subject Public Key Info:
            Public Key Algorithm: rsaEncryption
                Public-Key: (4096 bit)
                Modulus:
                    00:b7:05:2e:95:6e:da:73:83:e6:6a:3d:63:31:11:
                    54:81:7c:58:c8:2b:6e:3e:22:40:35:56:54:db:b2:
                    15:85:35:ed:fa:5c:e9:96:a3:5e:0a:4b:f7:3f:f3:
                    91:0f:7b:2a:82:f8:99:4e:27:f9:ff:5c:88:9c:7c:
                    82:21:3b:b1:5a:10:6d:f4:a7:bc:b3:1e:8e:62:5b:
                    42:f9:4e:2c:03:4b:9a:9f:d9:92:b2:4e:04:71:b2:
                    2b:f3:1f:63:01:d1:83:2f:bf:2d:99:c7:d4:a5:5f:
                    4e:90:6d:25:ee:3b:4b:a2:aa:44:50:8b:e5:31:2f:
                    b6:97:29:7c:05:c9:0b:b9:f7:ba:8e:cb:d8:96:ea:
                    a0:30:c5:51:24:f8:98:f2:f4:cb:9c:47:7f:d0:0f:
                    d7:12:cb:1f:11:0d:45:05:4d:62:9a:9c:f3:2c:bb:
                    23:33:fd:c1:f9:a6:4f:64:bb:83:c1:52:61:e9:a5:
                    10:cb:b6:c8:b4:e2:a2:1b:42:c5:b6:d9:07:ab:e8:
                    88:a5:4a:c7:fe:d7:ee:ca:00:65:0d:9a:0f:e6:d9:
                    5c:4e:1c:67:b4:f3:fb:b9:eb:81:d3:93:6b:3c:f4:
                    4c:8d:69:48:40:02:ba:ae:2f:ca:7e:3b:58:a9:78:
                    39:07:1f:23:e4:b6:3e:93:d9:96:8c:3d:96:ac:df:
                    9e:21:3a:54:91:6f:d1:5f:a8:e2:97:3d:ba:f4:71:
                    03:fa:a7:d9:1d:5e:fb:7f:a8:59:74:ff:a1:a5:32:
                    ba:30:b5:1f:87:a7:6e:50:aa:a7:8a:4b:cf:9f:65:
                    d8:5e:3e:52:23:29:3b:31:54:8f:5c:2b:92:81:f6:
                    92:c4:02:52:53:61:25:3d:81:d6:1a:8e:98:70:30:
                    12:bc:51:55:bc:62:27:2b:a4:94:cc:27:eb:a4:1d:
                    6c:5f:02:cc:2b:49:36:a9:f6:d0:ca:76:ee:93:8e:
                    cb:43:b6:f8:13:0b:49:84:68:96:43:95:5e:2a:bd:
                    88:a8:59:0c:7c:87:0a:f1:2b:93:67:14:a3:4d:00:
                    67:62:af:a6:c4:ea:21:e4:3f:06:16:12:dc:95:ee:
                    8d:7a:0c:74:01:00:0e:3b:87:b0:f2:80:d9:72:bb:
                    9b:14:56:34:29:d6:a9:ac:49:cc:90:10:22:eb:3d:
                    f1:05:2d:4b:b6:75:53:f9:12:68:0b:33:83:16:bf:
                    13:91:a0:9d:a5:b8:7f:81:00:e0:c6:e2:19:a2:59:
                    88:a0:10:f2:af:36:b7:61:53:96:9d:49:eb:16:49:
                    c7:40:20:70:12:33:5e:c0:6d:64:f4:3a:98:f3:d7:
                    40:14:66:c0:b8:5e:fb:e8:4c:c1:5f:2c:d8:16:80:
                    15:ca:cf
                Exponent: 65537 (0x10001)
        X509v3 extensions:
            X509v3 Subject Key Identifier: 
                42:A3:D4:D1:4B:EC:DA:3C:86:29:04:50:73:E4:61:45:D4:42:7B:9B
            X509v3 Authority Key Identifier: 
                keyid:42:A3:D4:D1:4B:EC:DA:3C:86:29:04:50:73:E4:61:45:D4:42:7B:9B
                DirName:/C=RU/ST=Moscow/O=Private Person/CN=Test Certificate Authority
                serial:0D:E3:9B:FF:E3:EE:7B:A2:A3:05:1E:0C:C3:11:06:AE:8F:74:75:22
            X509v3 Basic Constraints: 
                CA:TRUE
    Signature Algorithm: sha512WithRSAEncryption
    Signature Value:
        6d:f9:30:00:46:46:df:d3:b8:9a:65:f9:60:2e:76:64:51:52:
        de:4a:9b:84:4c:e5:b2:a4:0b:9e:f0:5f:33:30:c4:0e:de:51:
        83:90:39:df:c8:2f:8c:e0:3d:4d:f4:21:be:d6:3b:8c:9a:13:
        b0:d0:f9:68:7c:9c:6e:4f:89:4d:51:54:47:53:16:c5:73:fb:
        31:5c:37:83:7d:19:f8:45:e6:5d:0c:8b:ba:8a:49:31:7e:78:
        ea:4f:b3:0f:f6:a0:6a:7e:5a:ad:f9:1a:58:69:8e:8c:60:f3:
        59:77:45:99:19:d4:03:33:47:4c:60:51:f1:c0:14:5c:03:04:
        f4:a4:5f:5b:24:d6:8f:6e:23:39:d7:5f:61:9c:25:4a:5b:8f:
        38:cc:44:e8:e3:6b:5b:91:5e:8f:8c:e1:8e:45:6b:47:77:2c:
        e5:38:af:e8:ae:9f:7e:f4:84:05:8d:be:d7:a8:56:3c:64:16:
        fa:40:2c:26:ca:64:4e:b3:34:d3:16:c4:f0:2b:68:8c:47:0b:
        05:80:4f:6a:e2:d3:52:d8:b5:fa:96:e2:b3:3c:87:fd:68:fd:
        54:76:96:d5:2a:d2:9a:4b:82:bf:f5:e5:16:27:2c:89:36:71:
        16:6c:7a:fc:3f:7f:eb:29:cd:11:aa:6b:73:fe:ae:a8:77:38:
        19:1b:d9:c6:e0:31:c9:dc:29:63:cf:c6:c5:18:40:fa:5c:42:
        c1:52:36:93:55:06:2f:5c:f9:54:a5:ad:ee:0e:d1:98:2c:91:
        c3:41:42:2f:4a:49:23:31:75:0b:5d:2b:94:07:0a:ad:a1:37:
        b9:f6:38:61:b3:6f:ce:23:1d:75:38:46:27:58:54:63:46:dc:
        66:06:90:1f:12:0a:d4:69:84:58:6e:24:ec:eb:4f:12:17:4b:
        fd:1b:3c:fa:1f:37:f5:1f:43:3b:c8:3e:7d:b9:3b:33:67:d7:
        21:1e:cc:37:2e:26:9b:c3:5a:9d:a0:a3:72:4c:96:cb:6c:a7:
        87:46:7b:48:1d:bd:7a:35:6c:59:05:a9:f6:5b:f3:24:6a:f4:
        06:22:f9:71:4e:17:1c:15:07:60:35:86:70:45:33:ac:51:0c:
        33:14:ff:5a:47:ea:cb:91:44:c3:97:41:8c:3e:a6:ea:59:0e:
        48:da:11:cb:d6:8c:8f:50:0a:8e:e6:cc:06:05:e6:e8:18:de:
        77:f0:48:d8:4b:b5:14:35:3b:f4:b4:84:79:4f:fa:53:fa:25:
        5d:41:d0:5b:f5:c7:46:cf:05:a4:3f:f3:96:34:06:e3:93:50:
        f5:ee:ad:88:76:d4:83:6b:d3:ba:fc:55:2a:f4:f6:b3:ff:34:
        17:dd:e6:15:08:57:e7:87
-----BEGIN CERTIFICATE-----
MIIGEzCCA/ugAwIBAgIUDeOb/+Pue6KjBR4MwxEGro90dSIwDQYJKoZIhvcNAQEN
BQAwXDELMAkGA1UEBhMCUlUxDzANBgNVBAgTBk1vc2NvdzEXMBUGA1UEChMOUHJp
dmF0ZSBQZXJzb24xIzAhBgNVBAMTGlRlc3QgQ2VydGlmaWNhdGUgQXV0aG9yaXR5
MB4XDTI0MTExMDExMDE0NFoXDTQ0MTEwNTExMDE0NFowXDELMAkGA1UEBhMCUlUx
DzANBgNVBAgTBk1vc2NvdzEXMBUGA1UEChMOUHJpdmF0ZSBQZXJzb24xIzAhBgNV
BAMTGlRlc3QgQ2VydGlmaWNhdGUgQXV0aG9yaXR5MIICIjANBgkqhkiG9w0BAQEF
AAOCAg8AMIICCgKCAgEAtwUulW7ac4Pmaj1jMRFUgXxYyCtuPiJANVZU27IVhTXt
+lzplqNeCkv3P/ORD3sqgviZTif5/1yInHyCITuxWhBt9Ke8sx6OYltC+U4sA0ua
n9mSsk4EcbIr8x9jAdGDL78tmcfUpV9OkG0l7jtLoqpEUIvlMS+2lyl8BckLufe6
jsvYluqgMMVRJPiY8vTLnEd/0A/XEssfEQ1FBU1impzzLLsjM/3B+aZPZLuDwVJh
6aUQy7bItOKiG0LFttkHq+iIpUrH/tfuygBlDZoP5tlcThxntPP7ueuB05NrPPRM
jWlIQAK6ri/KfjtYqXg5Bx8j5LY+k9mWjD2WrN+eITpUkW/RX6jilz269HED+qfZ
HV77f6hZdP+hpTK6MLUfh6duUKqnikvPn2XYXj5SIyk7MVSPXCuSgfaSxAJSU2El
PYHWGo6YcDASvFFVvGInK6SUzCfrpB1sXwLMK0k2qfbQynbuk47LQ7b4EwtJhGiW
Q5VeKr2IqFkMfIcK8SuTZxSjTQBnYq+mxOoh5D8GFhLcle6Negx0AQAOO4ew8oDZ
crubFFY0KdaprEnMkBAi6z3xBS1LtnVT+RJoCzODFr8TkaCdpbh/gQDgxuIZolmI
oBDyrza3YVOWnUnrFknHQCBwEjNewG1k9DqY89dAFGbAuF776EzBXyzYFoAVys8C
AwEAAaOBzDCByTAdBgNVHQ4EFgQUQqPU0Uvs2jyGKQRQc+RhRdRCe5swgZkGA1Ud
IwSBkTCBjoAUQqPU0Uvs2jyGKQRQc+RhRdRCe5uhYKReMFwxCzAJBgNVBAYTAlJV
MQ8wDQYDVQQIEwZNb3Njb3cxFzAVBgNVBAoTDlByaXZhdGUgUGVyc29uMSMwIQYD
VQQDExpUZXN0IENlcnRpZmljYXRlIEF1dGhvcml0eYIUDeOb/+Pue6KjBR4MwxEG
ro90dSIwDAYDVR0TBAUwAwEB/zANBgkqhkiG9w0BAQ0FAAOCAgEAbfkwAEZG39O4
mmX5YC52ZFFS3kqbhEzlsqQLnvBfMzDEDt5Rg5A538gvjOA9TfQhvtY7jJoTsND5
aHycbk+JTVFUR1MWxXP7MVw3g30Z+EXmXQyLuopJMX546k+zD/agan5arfkaWGmO
jGDzWXdFmRnUAzNHTGBR8cAUXAME9KRfWyTWj24jOddfYZwlSluPOMxE6ONrW5Fe
j4zhjkVrR3cs5Tiv6K6ffvSEBY2+16hWPGQW+kAsJspkTrM00xbE8CtojEcLBYBP
auLTUti1+pbiszyH/Wj9VHaW1SrSmkuCv/XlFicsiTZxFmx6/D9/6ynNEaprc/6u
qHc4GRvZxuAxydwpY8/GxRhA+lxCwVI2k1UGL1z5VKWt7g7RmCyRw0FCL0pJIzF1
C10rlAcKraE3ufY4YbNvziMddThGJ1hUY0bcZgaQHxIK1GmEWG4k7OtPEhdL/Rs8
+h839R9DO8g+fbk7M2fXIR7MNy4mm8NanaCjckyWy2ynh0Z7SB29ejVsWQWp9lvz
JGr0BiL5cU4XHBUHYDWGcEUzrFEMMxT/Wkfqy5FEw5dBjD6m6lkOSNoRy9aMj1AK
jubMBgXm6Bjed/BI2Eu1FDU79LSEeU/6U/olXUHQW/XHRs8FpD/zljQG45NQ9e6t
iHbUg2vTuvxVKvT2s/80F93mFQhX54c=
-----END CERTIFICATE-----
