Certificate:
    Data:
        Version: 3 (0x2)
        Serial Number:
            58:0b:b9:d3:72:d2:23:38:a7:9c:90:c8:64:46:5c:b7:14:3c:0c:a9
        Signature Algorithm: sha512WithRSAEncryption
        Issuer: C=RU, ST=Moscow, O=Private Person, CN=Test Certificate Authority
        Validity
            Not Before: Nov 12 07:51:08 2024 GMT
            Not After : Nov  7 07:51:08 2044 GMT
        Subject: C=RU, ST=Moscow, O=Private Person, CN=Test Certificate Authority
        Subject Public Key Info:
            Public Key Algorithm: rsaEncryption
                Public-Key: (4096 bit)
                Modulus:
                    00:e1:dc:8c:0f:e4:8c:9a:38:78:22:33:3e:ac:43:
                    d8:f2:bd:c0:50:43:c8:6c:8d:b8:cf:26:a0:fc:8b:
                    ed:ca:75:00:86:28:9d:08:54:83:55:8f:01:0c:dc:
                    97:02:52:f5:ff:31:58:65:92:ac:52:fb:10:9a:8e:
                    ba:7d:45:f7:ef:fb:71:05:17:79:c8:65:7f:64:f2:
                    14:00:ce:0a:45:bf:f1:50:eb:63:f2:31:6a:ac:1d:
                    ee:7a:a1:f9:d5:8f:e7:2b:44:1d:46:cf:2e:05:63:
                    d7:34:f5:6b:5a:9d:36:be:07:2e:58:04:80:6f:e3:
                    41:71:cb:9e:8d:11:96:be:a5:77:7d:78:d2:10:e0:
                    6b:63:ff:bd:cd:38:f0:e9:d5:9e:9c:78:e8:0c:bf:
                    0e:87:51:a4:8f:72:49:31:7b:38:3f:bd:d5:7e:3b:
                    6c:fe:49:a6:5e:9f:05:d7:aa:9d:10:0e:63:b6:02:
                    01:af:9f:c0:ab:06:10:7e:06:13:a8:7f:b5:7d:15:
                    ec:7b:ea:58:a3:36:9b:ad:75:1c:a4:94:a1:90:a2:
                    63:3b:76:51:b9:9d:cd:d8:7e:4c:6e:8f:3b:53:e4:
                    d1:b0:dc:c7:f1:34:34:ae:5b:f9:6f:73:62:61:9d:
                    60:b4:ae:42:36:bb:0a:ae:89:91:cd:96:6a:12:2c:
                    32:58:e2:97:d8:39:25:fc:9b:c8:0e:02:7b:bd:d5:
                    28:be:bd:fa:04:f9:c6:a2:c7:07:d1:b7:a0:3f:ef:
                    a5:2c:41:84:ca:cf:12:7a:cb:9e:22:9d:26:4f:76:
                    69:af:c1:28:d1:97:b8:37:d8:c4:ec:f6:c6:12:37:
                    01:31:67:8d:4a:40:bc:28:30:2b:b1:39:90:16:11:
                    e4:be:5e:f8:fc:a2:e4:0d:68:4f:93:f4:a6:78:73:
                    3e:48:3b:77:87:20:e9:8c:32:b4:62:be:22:59:d5:
                    cb:44:ea:dd:3f:b3:a7:1d:cf:76:29:4a:da:5f:97:
                    6c:6e:37:29:4b:79:40:5c:fb:13:9e:63:35:f2:dc:
                    82:f5:e4:4b:9b:24:1e:0a:ea:8a:e6:45:59:70:ad:
                    c3:ea:96:a8:69:26:02:a4:13:ca:85:ce:ad:d2:8b:
                    13:50:c3:7a:40:c0:09:12:76:81:71:c7:4a:19:ff:
                    a0:ed:ca:0e:93:5b:ef:51:2c:77:43:99:ce:dc:5b:
                    5f:5b:87:bb:5f:c1:8c:90:7f:1a:c4:bc:b1:7a:8c:
                    cf:39:b1:8c:3d:97:ae:b8:c3:b6:58:8f:59:c1:40:
                    8d:50:dc:ef:a2:f3:7c:66:90:6b:76:b6:fe:63:66:
                    fd:87:41:79:f6:5f:3a:1b:8f:7f:c0:4e:6f:0f:8e:
                    56:7d:ef
                Exponent: 65537 (0x10001)
        X509v3 extensions:
            X509v3 Subject Key Identifier: 
                47:28:FC:41:2C:8F:89:63:67:CA:0A:22:ED:B9:54:77:A9:35:72:65
            X509v3 Authority Key Identifier: 
                keyid:47:28:FC:41:2C:8F:89:63:67:CA:0A:22:ED:B9:54:77:A9:35:72:65
                DirName:/C=RU/ST=Moscow/O=Private Person/CN=Test Certificate Authority
                serial:58:0B:B9:D3:72:D2:23:38:A7:9C:90:C8:64:46:5C:B7:14:3C:0C:A9
            X509v3 Basic Constraints: 
                CA:TRUE
    Signature Algorithm: sha512WithRSAEncryption
    Signature Value:
        04:67:6a:e1:1a:73:1b:69:6d:e6:0d:e5:d8:fe:15:51:2c:2a:
        16:ce:78:e3:6c:20:c3:b2:34:71:1a:3c:64:8c:2a:96:0b:e0:
        c3:fb:12:76:ba:fe:25:8b:01:4f:6c:09:b4:b2:02:86:a9:50:
        89:a7:bd:4a:17:79:fd:9e:ea:c9:39:6b:a2:45:f4:09:a6:b8:
        fa:bc:de:14:4e:0b:dd:69:2c:3f:6a:a7:55:53:49:64:fc:a7:
        ad:de:a3:9a:c3:72:a9:75:82:b7:84:f1:60:c1:8a:6c:36:cf:
        0f:dd:d6:73:78:cd:7e:55:f0:76:88:e6:a7:ed:8f:10:b1:c1:
        1e:7e:cc:18:7f:ff:00:09:e2:96:47:9a:ce:15:77:4e:e4:51:
        5b:e9:b8:1b:34:3e:3b:71:07:38:a4:10:f4:7b:f5:68:9f:8d:
        6a:27:7d:e1:dd:12:73:9b:71:3c:ee:70:ff:50:ce:39:5f:4b:
        1f:0a:e7:66:ef:05:d1:37:9a:ce:00:d5:51:93:27:b1:28:ed:
        0a:28:c1:9a:60:b5:aa:01:0e:52:55:89:20:a5:c8:8f:ac:e1:
        c2:cb:2f:f7:2d:f7:92:16:1c:09:28:9d:e7:7d:64:11:59:f3:
        27:64:3a:f4:7c:98:0f:43:01:03:7b:ac:e4:a0:39:e5:9c:2f:
        e9:64:0a:b0:34:2a:6f:6c:9f:cc:23:e6:53:a0:25:b9:95:8c:
        3b:70:75:84:1a:bd:ed:e7:7f:25:36:04:9b:3b:44:ef:9a:83:
        5e:25:48:27:4e:0c:ec:02:41:a5:07:e5:6a:d0:b6:12:8c:61:
        38:98:40:1c:4c:e0:05:e7:0b:ea:d0:bd:c9:4c:92:bd:9b:f7:
        71:9e:37:a1:8b:51:ea:29:cd:55:dd:7d:76:1a:02:bf:ad:e3:
        ae:fe:0b:6b:41:e5:d6:18:f1:bb:c5:93:34:50:2e:8d:d1:c7:
        3e:17:21:31:52:1e:b4:17:22:f9:6d:df:ad:7d:1d:b3:04:62:
        8c:83:c8:c7:64:50:58:52:93:78:b9:5c:3c:a9:50:a5:16:b5:
        f5:89:b2:b0:ed:64:e7:4a:fa:c8:ed:41:d8:eb:27:25:f6:21:
        d7:d4:fb:9d:89:97:91:c6:b7:7f:be:59:0d:61:15:34:c9:80:
        10:a3:0b:8e:3c:43:dd:39:28:8a:56:51:00:ba:e3:2d:a3:0c:
        20:f1:0f:49:10:34:0d:da:25:4d:21:32:73:11:9b:ce:af:f4:
        28:95:09:a8:13:3b:e0:c5:77:96:64:bc:4f:2a:15:e8:f1:0d:
        b0:0f:c6:d2:d0:40:c7:3d:c9:9d:3f:52:a3:b8:cc:90:d2:c2:
        5f:5b:85:07:92:7b:f9:9a
-----BEGIN CERTIFICATE-----
MIIGEzCCA/ugAwIBAgIUWAu503LSIzinnJDIZEZctxQ8DKkwDQYJKoZIhvcNAQEN
BQAwXDELMAkGA1UEBhMCUlUxDzANBgNVBAgTBk1vc2NvdzEXMBUGA1UEChMOUHJp
dmF0ZSBQZXJzb24xIzAhBgNVBAMTGlRlc3QgQ2VydGlmaWNhdGUgQXV0aG9yaXR5
MB4XDTI0MTExMjA3NTEwOFoXDTQ0MTEwNzA3NTEwOFowXDELMAkGA1UEBhMCUlUx
DzANBgNVBAgTBk1vc2NvdzEXMBUGA1UEChMOUHJpdmF0ZSBQZXJzb24xIzAhBgNV
BAMTGlRlc3QgQ2VydGlmaWNhdGUgQXV0aG9yaXR5MIICIjANBgkqhkiG9w0BAQEF
AAOCAg8AMIICCgKCAgEA4dyMD+SMmjh4IjM+rEPY8r3AUEPIbI24zyag/IvtynUA
hiidCFSDVY8BDNyXAlL1/zFYZZKsUvsQmo66fUX37/txBRd5yGV/ZPIUAM4KRb/x
UOtj8jFqrB3ueqH51Y/nK0QdRs8uBWPXNPVrWp02vgcuWASAb+NBccuejRGWvqV3
fXjSEOBrY/+9zTjw6dWenHjoDL8Oh1Gkj3JJMXs4P73Vfjts/kmmXp8F16qdEA5j
tgIBr5/AqwYQfgYTqH+1fRXse+pYozabrXUcpJShkKJjO3ZRuZ3N2H5Mbo87U+TR
sNzH8TQ0rlv5b3NiYZ1gtK5CNrsKromRzZZqEiwyWOKX2Dkl/JvIDgJ7vdUovr36
BPnGoscH0begP++lLEGEys8SesueIp0mT3Zpr8Eo0Ze4N9jE7PbGEjcBMWeNSkC8
KDArsTmQFhHkvl74/KLkDWhPk/SmeHM+SDt3hyDpjDK0Yr4iWdXLROrdP7OnHc92
KUraX5dsbjcpS3lAXPsTnmM18tyC9eRLmyQeCuqK5kVZcK3D6paoaSYCpBPKhc6t
0osTUMN6QMAJEnaBccdKGf+g7coOk1vvUSx3Q5nO3FtfW4e7X8GMkH8axLyxeozP
ObGMPZeuuMO2WI9ZwUCNUNzvovN8ZpBrdrb+Y2b9h0F59l86G49/wE5vD45Wfe8C
AwEAAaOBzDCByTAdBgNVHQ4EFgQURyj8QSyPiWNnygoi7blUd6k1cmUwgZkGA1Ud
IwSBkTCBjoAURyj8QSyPiWNnygoi7blUd6k1cmWhYKReMFwxCzAJBgNVBAYTAlJV
MQ8wDQYDVQQIEwZNb3Njb3cxFzAVBgNVBAoTDlByaXZhdGUgUGVyc29uMSMwIQYD
VQQDExpUZXN0IENlcnRpZmljYXRlIEF1dGhvcml0eYIUWAu503LSIzinnJDIZEZc
txQ8DKkwDAYDVR0TBAUwAwEB/zANBgkqhkiG9w0BAQ0FAAOCAgEABGdq4RpzG2lt
5g3l2P4VUSwqFs5442wgw7I0cRo8ZIwqlgvgw/sSdrr+JYsBT2wJtLIChqlQiae9
Shd5/Z7qyTlrokX0Caa4+rzeFE4L3WksP2qnVVNJZPynrd6jmsNyqXWCt4TxYMGK
bDbPD93Wc3jNflXwdojmp+2PELHBHn7MGH//AAnilkeazhV3TuRRW+m4GzQ+O3EH
OKQQ9Hv1aJ+Naid94d0Sc5txPO5w/1DOOV9LHwrnZu8F0TeazgDVUZMnsSjtCijB
mmC1qgEOUlWJIKXIj6zhwssv9y33khYcCSid531kEVnzJ2Q69HyYD0MBA3us5KA5
5Zwv6WQKsDQqb2yfzCPmU6AluZWMO3B1hBq97ed/JTYEmztE75qDXiVIJ04M7AJB
pQflatC2EoxhOJhAHEzgBecL6tC9yUySvZv3cZ43oYtR6inNVd19dhoCv63jrv4L
a0Hl1hjxu8WTNFAujdHHPhchMVIetBci+W3frX0dswRijIPIx2RQWFKTeLlcPKlQ
pRa19YmysO1k50r6yO1B2OsnJfYh19T7nYmXkca3f75ZDWEVNMmAEKMLjjxD3Tko
ilZRALrjLaMMIPEPSRA0DdolTSEycxGbzq/0KJUJqBM74MV3lmS8TyoV6PENsA/G
0tBAxz3JnT9So7jMkNLCX1uFB5J7+Zo=
-----END CERTIFICATE-----
